target datalayout = "e-m:e-p270:32:32-p271:32:32-p272:64:64-i64:64-i128:128-f80:128-n8:16:32:64-S128"
target triple = "x86_64-unknown-linux-gnu"

%struct.riscv_aclint_mtimer_callback = type { ptr, i32 }
%struct.RISCVAclintMTimerState = type { %struct.SysBusDevice, i64, ptr, ptr, %struct.MemoryRegion, i32, i32, i32, i32, i32, i32, ptr }
%struct.SysBusDevice = type { %struct.DeviceState, i32, [32 x %struct.anon], i32, [32 x i32] }
%struct.DeviceState = type { %struct.Object, ptr, ptr, i8, i8, i64, ptr, i32, i8, ptr, %struct.NamedGPIOListHead, %struct.NamedClockListHead, %struct.BusStateHead, i32, i32, i32, %struct.ResettableState, ptr, %struct.MemReentrancyGuard }
%struct.Object = type { ptr, ptr, ptr, i32, ptr }
%struct.NamedGPIOListHead = type { ptr }
%struct.NamedClockListHead = type { ptr }
%struct.BusStateHead = type { ptr }
%struct.ResettableState = type { i32, i8, i8 }
%struct.MemReentrancyGuard = type { i8 }
%struct.anon = type { i64, ptr }
%struct.MemoryRegion = type { %struct.Object, i8, i8, i8, i8, i8, i8, i8, i8, i8, i8, ptr, ptr, ptr, ptr, ptr, ptr, i32, i128, i64, ptr, i64, i8, i8, i8, i8, i8, ptr, i64, i32, %union.anon, %union.anon.0, %union.anon.1, ptr, i32, ptr, ptr, i8 }
%union.anon = type { %struct.QTailQLink }
%struct.QTailQLink = type { ptr, ptr }
%union.anon.0 = type { %struct.QTailQLink }
%union.anon.1 = type { %struct.QTailQLink }
%struct.CPUState = type { %struct.DeviceState, ptr, i32, i32, ptr, i32, i8, i8, ptr, i8, i8, i8, i8, i8, i8, i8, i8, i32, i32, i32, i32, i64, i64, i64, [1 x %struct.__jmp_buf_tag], %struct.QemuMutex, %struct.anon.2, ptr, i32, ptr, ptr, ptr, ptr, i32, i32, %union.anon.3, %union.anon.4, %union.anon.5, ptr, ptr, i64, i32, ptr, ptr, ptr, i32, i64, i32, %struct.QemuLockCnt, [1 x i64], ptr, i32, i32, i32, i32, i32, ptr, i8, i8, i64, i8, i8, ptr, [8 x i8], [0 x i8], %struct.CPUNegativeOffsetState }
%struct.__jmp_buf_tag = type { [8 x i64], i32, %struct.__sigset_t }
%struct.__sigset_t = type { [16 x i64] }
%struct.QemuMutex = type { %union.pthread_mutex_t, i8 }
%union.pthread_mutex_t = type { %struct.__pthread_mutex_s }
%struct.__pthread_mutex_s = type { i32, i32, i32, i32, i32, i16, i16, %struct.__pthread_internal_list }
%struct.__pthread_internal_list = type { ptr, ptr }
%struct.anon.2 = type { ptr, ptr }
%union.anon.3 = type { %struct.QTailQLink }
%union.anon.4 = type { %struct.QTailQLink }
%union.anon.5 = type { %struct.QTailQLink }
%struct.QemuLockCnt = type { i32 }
%struct.CPUNegativeOffsetState = type { %struct.CPUTLB, %union.IcountDecr, i8, [11 x i8] }
%struct.CPUTLB = type { %struct.CPUTLBCommon, [16 x %struct.CPUTLBDesc], [16 x %struct.CPUTLBDescFast] }
%struct.CPUTLBCommon = type { %struct.QemuSpin, i16, i64, i64, i64 }
%struct.QemuSpin = type { i32 }
%struct.CPUTLBDesc = type { i64, i64, i64, i64, i64, i64, [8 x %union.CPUTLBEntry], [8 x %struct.CPUTLBEntryFull], ptr }
%union.CPUTLBEntry = type { %struct.anon.6 }
%struct.anon.6 = type { i64, i64, i64, i64 }
%struct.CPUTLBEntryFull = type { i64, i64, %struct.MemTxAttrs, i8, i8, [3 x i8], %union.anon.7 }
%struct.MemTxAttrs = type { i32 }
%union.anon.7 = type { %struct.anon.8 }
%struct.anon.8 = type { i8, i8, i8 }
%struct.CPUTLBDescFast = type { i64, ptr }
%union.IcountDecr = type { i32 }

@.str = private unnamed_addr constant [20 x i8] c"riscv.aclint.mtimer\00", align 1
@.str.1 = private unnamed_addr constant [31 x i8] c"../qemu/hw/intc/riscv_aclint.c\00", align 1
@__func__.riscv_aclint_mtimer_create = private unnamed_addr constant [27 x i8] c"riscv_aclint_mtimer_create\00", align 1
@.str.2 = private unnamed_addr constant [36 x i8] c"num_harts <= RISCV_ACLINT_MAX_HARTS\00", align 1
@__PRETTY_FUNCTION__.riscv_aclint_mtimer_create = private unnamed_addr constant [113 x i8] c"DeviceState *riscv_aclint_mtimer_create(hwaddr, hwaddr, uint32_t, uint32_t, uint32_t, uint32_t, uint32_t, _Bool)\00", align 1
@.str.3 = private unnamed_addr constant [14 x i8] c"!(addr & 0x7)\00", align 1
@.str.4 = private unnamed_addr constant [22 x i8] c"!(timecmp_base & 0x7)\00", align 1
@.str.5 = private unnamed_addr constant [19 x i8] c"!(time_base & 0x7)\00", align 1
@.str.6 = private unnamed_addr constant [12 x i8] c"hartid-base\00", align 1
@.str.7 = private unnamed_addr constant [10 x i8] c"num-harts\00", align 1
@.str.8 = private unnamed_addr constant [13 x i8] c"timecmp-base\00", align 1
@.str.9 = private unnamed_addr constant [10 x i8] c"time-base\00", align 1
@.str.10 = private unnamed_addr constant [14 x i8] c"aperture-size\00", align 1
@.str.11 = private unnamed_addr constant [14 x i8] c"timebase-freq\00", align 1
@error_fatal = external global ptr, align 8
@.str.15 = private unnamed_addr constant [15 x i8] c"sys-bus-device\00", align 1
@.str.16 = private unnamed_addr constant [98 x i8] c"/home/dtcxzyw/WorkSpace/Projects/compilers/llvm-opt-benchmark/bench/qemu/qemu/include/hw/sysbus.h\00", align 1
@__func__.SYS_BUS_DEVICE = private unnamed_addr constant [15 x i8] c"SYS_BUS_DEVICE\00", align 1
@.str.17 = private unnamed_addr constant [10 x i8] c"riscv-cpu\00", align 1
@.str.18 = private unnamed_addr constant [101 x i8] c"/home/dtcxzyw/WorkSpace/Projects/compilers/llvm-opt-benchmark/bench/qemu/qemu/target/riscv/cpu-qom.h\00", align 1
@__func__.RISCV_CPU = private unnamed_addr constant [10 x i8] c"RISCV_CPU\00", align 1
@.str.19 = private unnamed_addr constant [7 x i8] c"device\00", align 1
@.str.20 = private unnamed_addr constant [101 x i8] c"/home/dtcxzyw/WorkSpace/Projects/compilers/llvm-opt-benchmark/bench/qemu/qemu/include/hw/qdev-core.h\00", align 1
@__func__.DEVICE = private unnamed_addr constant [7 x i8] c"DEVICE\00", align 1

; Function Attrs: nounwind sspstrong uwtable
define internal ptr @timer_new_full(ptr noundef %timer_list_group, i32 noundef %type, i32 noundef %scale, i32 noundef %attributes, ptr noundef %cb, ptr noundef %opaque) #0 {
entry:
  %timer_list_group.addr = alloca ptr, align 8
  %type.addr = alloca i32, align 4
  %scale.addr = alloca i32, align 4
  %attributes.addr = alloca i32, align 4
  %cb.addr = alloca ptr, align 8
  %opaque.addr = alloca ptr, align 8
  %ts = alloca ptr, align 8
  store ptr %timer_list_group, ptr %timer_list_group.addr, align 8
  store i32 %type, ptr %type.addr, align 4
  store i32 %scale, ptr %scale.addr, align 4
  store i32 %attributes, ptr %attributes.addr, align 4
  store ptr %cb, ptr %cb.addr, align 8
  store ptr %opaque, ptr %opaque.addr, align 8
  %call = call noalias ptr @g_malloc0_n(i64 noundef 1, i64 noundef 48) #5
  store ptr %call, ptr %ts, align 8
  %0 = load ptr, ptr %ts, align 8
  %1 = load ptr, ptr %timer_list_group.addr, align 8
  %2 = load i32, ptr %type.addr, align 4
  %3 = load i32, ptr %scale.addr, align 4
  %4 = load i32, ptr %attributes.addr, align 4
  %5 = load ptr, ptr %cb.addr, align 8
  %6 = load ptr, ptr %opaque.addr, align 8
  call void @timer_init_full(ptr noundef %0, ptr noundef %1, i32 noundef %2, i32 noundef %3, i32 noundef %4, ptr noundef %5, ptr noundef %6)
  %7 = load ptr, ptr %ts, align 8
  ret ptr %7
}

; Function Attrs: nounwind sspstrong uwtable
define internal ptr @timer_new(i32 noundef %type, i32 noundef %scale, ptr noundef %cb, ptr noundef %opaque) #0 {
entry:
  %type.addr = alloca i32, align 4
  %scale.addr = alloca i32, align 4
  %cb.addr = alloca ptr, align 8
  %opaque.addr = alloca ptr, align 8
  store i32 %type, ptr %type.addr, align 4
  store i32 %scale, ptr %scale.addr, align 4
  store ptr %cb, ptr %cb.addr, align 8
  store ptr %opaque, ptr %opaque.addr, align 8
  %0 = load i32, ptr %type.addr, align 4
  %1 = load i32, ptr %scale.addr, align 4
  %2 = load ptr, ptr %cb.addr, align 8
  %3 = load ptr, ptr %opaque.addr, align 8
  %call = call ptr @timer_new_full(ptr noundef null, i32 noundef %0, i32 noundef %1, i32 noundef 0, ptr noundef %2, ptr noundef %3)
  ret ptr %call
}

; Function Attrs: nounwind sspstrong uwtable
define internal ptr @DEVICE(ptr noundef %obj) #0 {
entry:
  %obj.addr = alloca ptr, align 8
  store ptr %obj, ptr %obj.addr, align 8
  %0 = load ptr, ptr %obj.addr, align 8
  %call = call ptr @object_dynamic_cast_assert(ptr noundef %0, ptr noundef @.str.19, ptr noundef @.str.20, i32 noundef 77, ptr noundef @__func__.DEVICE)
  ret ptr %call
}

; Function Attrs: nounwind sspstrong uwtable
define internal ptr @timer_new_ns(i32 noundef %type, ptr noundef %cb, ptr noundef %opaque) #0 {
entry:
  %type.addr = alloca i32, align 4
  %cb.addr = alloca ptr, align 8
  %opaque.addr = alloca ptr, align 8
  store i32 %type, ptr %type.addr, align 4
  store ptr %cb, ptr %cb.addr, align 8
  store ptr %opaque, ptr %opaque.addr, align 8
  %0 = load i32, ptr %type.addr, align 4
  %1 = load ptr, ptr %cb.addr, align 8
  %2 = load ptr, ptr %opaque.addr, align 8
  %call = call ptr @timer_new(i32 noundef %0, i32 noundef 1, ptr noundef %1, ptr noundef %2)
  ret ptr %call
}

; Function Attrs: nounwind sspstrong uwtable
define internal ptr @cpu_env(ptr noundef %cpu) #0 {
entry:
  %cpu.addr = alloca ptr, align 8
  store ptr %cpu, ptr %cpu.addr, align 8
  %0 = load ptr, ptr %cpu.addr, align 8
  %add.ptr = getelementptr %struct.CPUState, ptr %0, i64 1
  ret ptr %add.ptr
}

; Function Attrs: nounwind sspstrong uwtable
define internal ptr @RISCV_CPU(ptr noundef %obj) #0 {
entry:
  %obj.addr = alloca ptr, align 8
  store ptr %obj, ptr %obj.addr, align 8
  %0 = load ptr, ptr %obj.addr, align 8
  %call = call ptr @object_dynamic_cast_assert(ptr noundef %0, ptr noundef @.str.17, ptr noundef @.str.18, i32 noundef 46, ptr noundef @__func__.RISCV_CPU)
  ret ptr %call
}

; Function Attrs: nounwind sspstrong uwtable
define internal ptr @SYS_BUS_DEVICE(ptr noundef %obj) #0 {
entry:
  %obj.addr = alloca ptr, align 8
  store ptr %obj, ptr %obj.addr, align 8
  %0 = load ptr, ptr %obj.addr, align 8
  %call = call ptr @object_dynamic_cast_assert(ptr noundef %0, ptr noundef @.str.15, ptr noundef @.str.16, i32 noundef 20, ptr noundef @__func__.SYS_BUS_DEVICE)
  ret ptr %call
}

; Function Attrs: nounwind sspstrong uwtable
define dso_local ptr @riscv_aclint_mtimer_create(i64 noundef %addr, i64 noundef %size, i32 noundef %hartid_base, i32 noundef %num_harts, i32 noundef %timecmp_base, i32 noundef %time_base, i32 noundef %timebase_freq, i1 noundef zeroext %provide_rdtime) #0 {
entry:
  %addr.addr = alloca i64, align 8
  %size.addr = alloca i64, align 8
  %hartid_base.addr = alloca i32, align 4
  %num_harts.addr = alloca i32, align 4
  %timecmp_base.addr = alloca i32, align 4
  %time_base.addr = alloca i32, align 4
  %timebase_freq.addr = alloca i32, align 4
  %provide_rdtime.addr = alloca i8, align 1
  %i = alloca i32, align 4
  %dev = alloca ptr, align 8
  %s = alloca ptr, align 8
  %cpu = alloca ptr, align 8
  %rvcpu = alloca ptr, align 8
  %env = alloca ptr, align 8
  %cb = alloca ptr, align 8
  store i64 %addr, ptr %addr.addr, align 8
  store i64 %size, ptr %size.addr, align 8
  store i32 %hartid_base, ptr %hartid_base.addr, align 4
  store i32 %num_harts, ptr %num_harts.addr, align 4
  store i32 %timecmp_base, ptr %timecmp_base.addr, align 4
  store i32 %time_base, ptr %time_base.addr, align 4
  store i32 %timebase_freq, ptr %timebase_freq.addr, align 4
  %frombool = zext i1 %provide_rdtime to i8
  store i8 %frombool, ptr %provide_rdtime.addr, align 1
  %call = call ptr @qdev_new(ptr noundef @.str)
  store ptr %call, ptr %dev, align 8
  %0 = load ptr, ptr %dev, align 8
  %call1 = call ptr @object_dynamic_cast_assert(ptr noundef %0, ptr noundef @.str, ptr noundef @.str.1, i32 noundef 359, ptr noundef @__func__.riscv_aclint_mtimer_create)
  store ptr %call1, ptr %s, align 8
  %1 = load i32, ptr %num_harts.addr, align 4
  %cmp = icmp ule i32 %1, 4095
  br i1 %cmp, label %if.then, label %if.else

if.then:                                          ; preds = %entry
  br label %if.end

if.else:                                          ; preds = %entry
  call void @__assert_fail(ptr noundef @.str.2, ptr noundef @.str.1, i32 noundef 361, ptr noundef @__PRETTY_FUNCTION__.riscv_aclint_mtimer_create) #4
  unreachable

if.end:                                           ; preds = %if.then
  %2 = load i64, ptr %addr.addr, align 8
  %and = and i64 %2, 7
  %tobool = icmp ne i64 %and, 0
  br i1 %tobool, label %if.else3, label %if.then2

if.then2:                                         ; preds = %if.end
  br label %if.end4

if.else3:                                         ; preds = %if.end
  call void @__assert_fail(ptr noundef @.str.3, ptr noundef @.str.1, i32 noundef 362, ptr noundef @__PRETTY_FUNCTION__.riscv_aclint_mtimer_create) #4
  unreachable

if.end4:                                          ; preds = %if.then2
  %3 = load i32, ptr %timecmp_base.addr, align 4
  %and5 = and i32 %3, 7
  %tobool6 = icmp ne i32 %and5, 0
  br i1 %tobool6, label %if.else8, label %if.then7

if.then7:                                         ; preds = %if.end4
  br label %if.end9

if.else8:                                         ; preds = %if.end4
  call void @__assert_fail(ptr noundef @.str.4, ptr noundef @.str.1, i32 noundef 363, ptr noundef @__PRETTY_FUNCTION__.riscv_aclint_mtimer_create) #4
  unreachable

if.end9:                                          ; preds = %if.then7
  %4 = load i32, ptr %time_base.addr, align 4
  %and10 = and i32 %4, 7
  %tobool11 = icmp ne i32 %and10, 0
  br i1 %tobool11, label %if.else13, label %if.then12

if.then12:                                        ; preds = %if.end9
  br label %if.end14

if.else13:                                        ; preds = %if.end9
  call void @__assert_fail(ptr noundef @.str.5, ptr noundef @.str.1, i32 noundef 364, ptr noundef @__PRETTY_FUNCTION__.riscv_aclint_mtimer_create) #4
  unreachable

if.end14:                                         ; preds = %if.then12
  %5 = load ptr, ptr %dev, align 8
  %6 = load i32, ptr %hartid_base.addr, align 4
  call void @qdev_prop_set_uint32(ptr noundef %5, ptr noundef @.str.6, i32 noundef %6)
  %7 = load ptr, ptr %dev, align 8
  %8 = load i32, ptr %num_harts.addr, align 4
  call void @qdev_prop_set_uint32(ptr noundef %7, ptr noundef @.str.7, i32 noundef %8)
  %9 = load ptr, ptr %dev, align 8
  %10 = load i32, ptr %timecmp_base.addr, align 4
  call void @qdev_prop_set_uint32(ptr noundef %9, ptr noundef @.str.8, i32 noundef %10)
  %11 = load ptr, ptr %dev, align 8
  %12 = load i32, ptr %time_base.addr, align 4
  call void @qdev_prop_set_uint32(ptr noundef %11, ptr noundef @.str.9, i32 noundef %12)
  %13 = load ptr, ptr %dev, align 8
  %14 = load i64, ptr %size.addr, align 8
  %conv = trunc i64 %14 to i32
  call void @qdev_prop_set_uint32(ptr noundef %13, ptr noundef @.str.10, i32 noundef %conv)
  %15 = load ptr, ptr %dev, align 8
  %16 = load i32, ptr %timebase_freq.addr, align 4
  call void @qdev_prop_set_uint32(ptr noundef %15, ptr noundef @.str.11, i32 noundef %16)
  %17 = load ptr, ptr %dev, align 8
  %call15 = call ptr @SYS_BUS_DEVICE(ptr noundef %17)
  %call16 = call zeroext i1 @sysbus_realize_and_unref(ptr noundef %call15, ptr noundef @error_fatal)
  %18 = load ptr, ptr %dev, align 8
  %call17 = call ptr @SYS_BUS_DEVICE(ptr noundef %18)
  %19 = load i64, ptr %addr.addr, align 8
  call void @sysbus_mmio_map(ptr noundef %call17, i32 noundef 0, i64 noundef %19)
  store i32 0, ptr %i, align 4
  br label %for.cond

for.cond:                                         ; preds = %for.inc, %if.end14
  %20 = load i32, ptr %i, align 4
  %21 = load i32, ptr %num_harts.addr, align 4
  %cmp18 = icmp ult i32 %20, %21
  br i1 %cmp18, label %for.body, label %for.end

for.body:                                         ; preds = %for.cond
  %22 = load i32, ptr %hartid_base.addr, align 4
  %23 = load i32, ptr %i, align 4
  %add = add i32 %22, %23
  %conv20 = zext i32 %add to i64
  %call21 = call ptr @cpu_by_arch_id(i64 noundef %conv20)
  store ptr %call21, ptr %cpu, align 8
  %24 = load ptr, ptr %cpu, align 8
  %call22 = call ptr @RISCV_CPU(ptr noundef %24)
  store ptr %call22, ptr %rvcpu, align 8
  %25 = load ptr, ptr %cpu, align 8
  %tobool23 = icmp ne ptr %25, null
  br i1 %tobool23, label %cond.true, label %cond.false

cond.true:                                        ; preds = %for.body
  %26 = load ptr, ptr %cpu, align 8
  %call24 = call ptr @cpu_env(ptr noundef %26)
  br label %cond.end

cond.false:                                       ; preds = %for.body
  br label %cond.end

cond.end:                                         ; preds = %cond.false, %cond.true
  %cond = phi ptr [ %call24, %cond.true ], [ null, %cond.false ]
  store ptr %cond, ptr %env, align 8
  %call25 = call noalias ptr @g_malloc0_n(i64 noundef 1, i64 noundef 16) #5
  store ptr %call25, ptr %cb, align 8
  %27 = load ptr, ptr %env, align 8
  %tobool26 = icmp ne ptr %27, null
  br i1 %tobool26, label %if.end28, label %if.then27

if.then27:                                        ; preds = %cond.end
  %28 = load ptr, ptr %cb, align 8
  call void @g_free(ptr noundef %28)
  br label %for.inc

if.end28:                                         ; preds = %cond.end
  %29 = load i8, ptr %provide_rdtime.addr, align 1
  %tobool29 = trunc i8 %29 to i1
  br i1 %tobool29, label %if.then30, label %if.end31

if.then30:                                        ; preds = %if.end28
  %30 = load ptr, ptr %env, align 8
  %31 = load ptr, ptr %dev, align 8
  call void @riscv_cpu_set_rdtime_fn(ptr noundef %30, ptr noundef @cpu_riscv_read_rtc, ptr noundef %31)
  br label %if.end31

if.end31:                                         ; preds = %if.then30, %if.end28
  %32 = load ptr, ptr %s, align 8
  %33 = load ptr, ptr %cb, align 8
  %s32 = getelementptr inbounds %struct.riscv_aclint_mtimer_callback, ptr %33, i32 0, i32 0
  store ptr %32, ptr %s32, align 8
  %34 = load i32, ptr %i, align 4
  %35 = load ptr, ptr %cb, align 8
  %num = getelementptr inbounds %struct.riscv_aclint_mtimer_callback, ptr %35, i32 0, i32 1
  store i32 %34, ptr %num, align 8
  %36 = load ptr, ptr %cb, align 8
  %call33 = call ptr @timer_new_ns(i32 noundef 1, ptr noundef @riscv_aclint_mtimer_cb, ptr noundef %36)
  %37 = load ptr, ptr %s, align 8
  %timers = getelementptr inbounds %struct.RISCVAclintMTimerState, ptr %37, i32 0, i32 3
  %38 = load ptr, ptr %timers, align 16
  %39 = load i32, ptr %i, align 4
  %idxprom = sext i32 %39 to i64
  %arrayidx = getelementptr ptr, ptr %38, i64 %idxprom
  store ptr %call33, ptr %arrayidx, align 8
  %40 = load ptr, ptr %s, align 8
  %timecmp = getelementptr inbounds %struct.RISCVAclintMTimerState, ptr %40, i32 0, i32 2
  %41 = load ptr, ptr %timecmp, align 8
  %42 = load i32, ptr %i, align 4
  %idxprom34 = sext i32 %42 to i64
  %arrayidx35 = getelementptr i64, ptr %41, i64 %idxprom34
  store i64 0, ptr %arrayidx35, align 8
  %43 = load ptr, ptr %dev, align 8
  %44 = load i32, ptr %i, align 4
  %45 = load ptr, ptr %rvcpu, align 8
  %call36 = call ptr @DEVICE(ptr noundef %45)
  %call37 = call ptr @qdev_get_gpio_in(ptr noundef %call36, i32 noundef 7)
  call void @qdev_connect_gpio_out(ptr noundef %43, i32 noundef %44, ptr noundef %call37)
  br label %for.inc

for.inc:                                          ; preds = %if.end31, %if.then27
  %46 = load i32, ptr %i, align 4
  %inc = add i32 %46, 1
  store i32 %inc, ptr %i, align 4
  br label %for.cond, !llvm.loop !5

for.end:                                          ; preds = %for.cond
  %47 = load ptr, ptr %dev, align 8
  ret ptr %47
}