; Function Attrs: nounwind sspstrong uwtable
define dso_local noundef ptr @riscv_aclint_mtimer_create(i64 noundef %addr, i64 noundef %size, i32 noundef %hartid_base, i32 noundef %num_harts, i32 noundef %timecmp_base, i32 noundef %time_base, i32 noundef %timebase_freq, i1 noundef zeroext %provide_rdtime) local_unnamed_addr #0 {
entry:
  %call = tail call ptr @qdev_new(ptr noundef nonnull @.str) #6
  %call1 = tail call ptr @object_dynamic_cast_assert(ptr noundef %call, ptr noundef nonnull @.str, ptr noundef nonnull @.str.1, i32 noundef 359, ptr noundef nonnull @__func__.riscv_aclint_mtimer_create) #6
  %cmp = icmp ult i32 %num_harts, 4096
  br i1 %cmp, label %if.end, label %if.else

if.else:                                          ; preds = %entry
  tail call void @__assert_fail(ptr noundef nonnull @.str.2, ptr noundef nonnull @.str.1, i32 noundef 361, ptr noundef nonnull @__PRETTY_FUNCTION__.riscv_aclint_mtimer_create) #7
  unreachable

if.end:                                           ; preds = %entry
  %and = and i64 %addr, 7
  %tobool.not = icmp eq i64 %and, 0
  br i1 %tobool.not, label %if.end4, label %if.else3

if.else3:                                         ; preds = %if.end
  tail call void @__assert_fail(ptr noundef nonnull @.str.3, ptr noundef nonnull @.str.1, i32 noundef 362, ptr noundef nonnull @__PRETTY_FUNCTION__.riscv_aclint_mtimer_create) #7
  unreachable

if.end4:                                          ; preds = %if.end
  %and5 = and i32 %timecmp_base, 7
  %tobool6.not = icmp eq i32 %and5, 0
  br i1 %tobool6.not, label %if.end9, label %if.else8

if.else8:                                         ; preds = %if.end4
  tail call void @__assert_fail(ptr noundef nonnull @.str.4, ptr noundef nonnull @.str.1, i32 noundef 363, ptr noundef nonnull @__PRETTY_FUNCTION__.riscv_aclint_mtimer_create) #7
  unreachable

if.end9:                                          ; preds = %if.end4
  %and10 = and i32 %time_base, 7
  %tobool11.not = icmp eq i32 %and10, 0
  br i1 %tobool11.not, label %if.end14, label %if.else13

if.else13:                                        ; preds = %if.end9
  tail call void @__assert_fail(ptr noundef nonnull @.str.5, ptr noundef nonnull @.str.1, i32 noundef 364, ptr noundef nonnull @__PRETTY_FUNCTION__.riscv_aclint_mtimer_create) #7
  unreachable

if.end14:                                         ; preds = %if.end9
  tail call void @qdev_prop_set_uint32(ptr noundef %call, ptr noundef nonnull @.str.6, i32 noundef %hartid_base) #6
  tail call void @qdev_prop_set_uint32(ptr noundef %call, ptr noundef nonnull @.str.7, i32 noundef %num_harts) #6
  tail call void @qdev_prop_set_uint32(ptr noundef %call, ptr noundef nonnull @.str.8, i32 noundef %timecmp_base) #6
  tail call void @qdev_prop_set_uint32(ptr noundef %call, ptr noundef nonnull @.str.9, i32 noundef %time_base) #6
  %conv = trunc i64 %size to i32
  tail call void @qdev_prop_set_uint32(ptr noundef %call, ptr noundef nonnull @.str.10, i32 noundef %conv) #6
  tail call void @qdev_prop_set_uint32(ptr noundef %call, ptr noundef nonnull @.str.11, i32 noundef %timebase_freq) #6
  %call.i = tail call ptr @object_dynamic_cast_assert(ptr noundef %call, ptr noundef nonnull @.str.15, ptr noundef nonnull @.str.16, i32 noundef 20, ptr noundef nonnull @__func__.SYS_BUS_DEVICE) #6
  %call16 = tail call zeroext i1 @sysbus_realize_and_unref(ptr noundef %call.i, ptr noundef nonnull @error_fatal) #6
  %call.i32 = tail call ptr @object_dynamic_cast_assert(ptr noundef %call, ptr noundef nonnull @.str.15, ptr noundef nonnull @.str.16, i32 noundef 20, ptr noundef nonnull @__func__.SYS_BUS_DEVICE) #6
  tail call void @sysbus_mmio_map(ptr noundef %call.i32, i32 noundef 0, i64 noundef %addr) #6
  %cmp1839.not = icmp eq i32 %num_harts, 0
  br i1 %cmp1839.not, label %for.end, label %for.body.lr.ph

for.body.lr.ph:                                   ; preds = %if.end14
  %timers = getelementptr inbounds nuw i8, ptr %call1, i64 832
  %timecmp = getelementptr inbounds nuw i8, ptr %call1, i64 824
  %wide.trip.count = zext nneg i32 %num_harts to i64
  br label %for.body

for.body:                                         ; preds = %for.body.lr.ph, %for.inc
  %indvars.iv = phi i64 [ 0, %for.body.lr.ph ], [ %indvars.iv.next, %for.inc ]
  %0 = trunc nuw nsw i64 %indvars.iv to i32
  %add = add i32 %hartid_base, %0
  %conv20 = zext i32 %add to i64
  %call21 = tail call ptr @cpu_by_arch_id(i64 noundef %conv20) #6
  %call.i33 = tail call ptr @object_dynamic_cast_assert(ptr noundef %call21, ptr noundef nonnull @.str.17, ptr noundef nonnull @.str.18, i32 noundef 46, ptr noundef nonnull @__func__.RISCV_CPU) #6
  %tobool23.not = icmp eq ptr %call21, null
  br i1 %tobool23.not, label %cond.end.thread, label %cond.end

cond.end.thread:                                  ; preds = %for.body
  %call2536 = tail call noalias dereferenceable_or_null(16) ptr @g_malloc0_n(i64 noundef 1, i64 noundef 16) #8
  br label %if.then27

cond.end:                                         ; preds = %for.body
  %add.ptr.i = getelementptr i8, ptr %call21, i64 10176
  %call25 = tail call noalias dereferenceable_or_null(16) ptr @g_malloc0_n(i64 noundef 1, i64 noundef 16) #8
  %tobool26.not = icmp eq ptr %add.ptr.i, null
  br i1 %tobool26.not, label %if.then27, label %if.end28

if.then27:                                        ; preds = %cond.end.thread, %cond.end
  %call2538 = phi ptr [ %call2536, %cond.end.thread ], [ %call25, %cond.end ]
  tail call void @g_free(ptr noundef %call2538) #6
  br label %for.inc

if.end28:                                         ; preds = %cond.end
  br i1 %provide_rdtime, label %if.then30, label %if.end31

if.then30:                                        ; preds = %if.end28
  tail call void @riscv_cpu_set_rdtime_fn(ptr noundef nonnull %add.ptr.i, ptr noundef nonnull @cpu_riscv_read_rtc, ptr noundef %call) #6
  br label %if.end31

if.end31:                                         ; preds = %if.then30, %if.end28
  store ptr %call1, ptr %call25, align 8
  %num = getelementptr inbounds nuw i8, ptr %call25, i64 8
  store i32 %0, ptr %num, align 8
  %call.i.i.i = tail call noalias dereferenceable_or_null(48) ptr @g_malloc0_n(i64 noundef 1, i64 noundef 48) #8
  tail call void @timer_init_full(ptr noundef %call.i.i.i, ptr noundef null, i32 noundef 1, i32 noundef 1, i32 noundef 0, ptr noundef nonnull @riscv_aclint_mtimer_cb, ptr noundef nonnull %call25) #6
  %1 = load ptr, ptr %timers, align 16
  %arrayidx = getelementptr ptr, ptr %1, i64 %indvars.iv
  store ptr %call.i.i.i, ptr %arrayidx, align 8
  %2 = load ptr, ptr %timecmp, align 8
  %arrayidx35 = getelementptr i64, ptr %2, i64 %indvars.iv
  store i64 0, ptr %arrayidx35, align 8
  %call.i34 = tail call ptr @object_dynamic_cast_assert(ptr noundef %call.i33, ptr noundef nonnull @.str.19, ptr noundef nonnull @.str.20, i32 noundef 77, ptr noundef nonnull @__func__.DEVICE) #6
  %call37 = tail call ptr @qdev_get_gpio_in(ptr noundef %call.i34, i32 noundef 7) #6
  tail call void @qdev_connect_gpio_out(ptr noundef %call, i32 noundef %0, ptr noundef %call37) #6
  br label %for.inc

for.inc:                                          ; preds = %if.end31, %if.then27
  %indvars.iv.next = add nuw nsw i64 %indvars.iv, 1
  %exitcond.not = icmp eq i64 %indvars.iv.next, %wide.trip.count
  br i1 %exitcond.not, label %for.end, label %for.body, !llvm.loop !5

for.end:                                          ; preds = %for.inc, %if.end14
  ret ptr %call
}